target datalayout = "e-m:e-p270:32:32-p271:32:32-p272:64:64-i64:64-i128:128-f80:128-n8:16:32:64-S128"
target triple = "x86_64-pc-linux-gnu"

%struct.darktable_t = type { %struct.dt_codepath_t, i32, i32, ptr, ptr, ptr, ptr, ptr, ptr, ptr, ptr, ptr, ptr, ptr, ptr, ptr, ptr, ptr, ptr, ptr, ptr, ptr, ptr, ptr, ptr, ptr, ptr, ptr, ptr, ptr, [64 x %struct.dt_pthread_mutex_t], %struct.dt_pthread_mutex_t, %struct.dt_pthread_mutex_t, %struct.dt_pthread_mutex_t, %struct.dt_pthread_mutex_t, %struct.dt_pthread_mutex_t, ptr, ptr, ptr, ptr, ptr, ptr, ptr, ptr, ptr, ptr, ptr, ptr, ptr, %struct.dt_lua_state_t, ptr, double, ptr, i32, [47 x i32], i32, i32, ptr, ptr, %struct.dt_sys_resources_t, %struct.dt_backthumb_t, %struct.dt_gimp_t }
%struct.dt_codepath_t = type { i8, [3 x i8] }
%struct.dt_pthread_mutex_t = type { %union.pthread_mutex_t }
%union.pthread_mutex_t = type { %struct.__pthread_mutex_s }
%struct.__pthread_mutex_s = type { i32, i32, i32, i32, i32, i16, i16, %struct.__pthread_internal_list }
%struct.__pthread_internal_list = type { ptr, ptr }
%struct.dt_lua_state_t = type { i32 }
%struct.dt_sys_resources_t = type { i64, i64, ptr, ptr, i32 }
%struct.dt_backthumb_t = type { double, double, i32, i32, i32, i32 }
%struct.dt_gimp_t = type { i32, ptr, ptr, i32, i32 }
%struct._GdkRGBA = type { double, double, double, double }
%struct.dt_gui_gtk_t = type { ptr, %struct.dt_gui_widgets_t, %struct.dt_gui_scrollbars_t, i32, ptr, i32, [39 x %struct._GdkRGBA], i32, i32, i32, i32, i32, double, double, double, double, ptr, double, double, double, double, i32, i32, [4096 x i8], i32, i32, i32, %struct.dt_pthread_mutex_t }
%struct.dt_gui_widgets_t = type { ptr, ptr, ptr, ptr, i32, i32, i32 }
%struct.dt_gui_scrollbars_t = type { ptr, ptr, i32 }

@.str.1 = private unnamed_addr constant [16 x i8] c"gslider != NULL\00", align 1
@darktable = external global %struct.darktable_t, align 8
@__func__._gradient_slider_init = private unnamed_addr constant [22 x i8] c"_gradient_slider_init\00", align 1

; Function Attrs: nounwind uwtable
define internal void @_gradient_slider_init(ptr noundef %0) #0 {
  %2 = alloca ptr, align 8
  %3 = alloca i32, align 4
  %4 = alloca i32, align 4
  %5 = alloca ptr, align 8
  store ptr %0, ptr %2, align 8, !tbaa !24
  br label %6

6:                                                ; preds = %1
  call void @llvm.lifetime.start.p0(i64 4, ptr %3) #11
  %7 = load ptr, ptr %2, align 8, !tbaa !24
  %8 = icmp ne ptr %7, null
  br i1 %8, label %9, label %10

9:                                                ; preds = %6
  store i32 1, ptr %3, align 4, !tbaa !13
  br label %11

10:                                               ; preds = %6
  store i32 0, ptr %3, align 4, !tbaa !13
  br label %11

11:                                               ; preds = %10, %9
  %12 = load i32, ptr %3, align 4, !tbaa !13
  store i32 %12, ptr %4, align 4, !tbaa !13
  call void @llvm.lifetime.end.p0(i64 4, ptr %3) #11
  %13 = load i32, ptr %4, align 4, !tbaa !13
  %14 = sext i32 %13 to i64
  %15 = call i64 @llvm.expect.i64(i64 %14, i64 1)
  %16 = icmp ne i64 %15, 0
  br i1 %16, label %17, label %18

17:                                               ; preds = %11
  br label %19

18:                                               ; preds = %11
  call void @g_return_if_fail_warning(ptr noundef null, ptr noundef @__func__._gradient_slider_init, ptr noundef @.str.1)
  br label %31

19:                                               ; preds = %17
  br label %20

20:                                               ; preds = %19
  call void @llvm.lifetime.start.p0(i64 8, ptr %5) #11
  %21 = load ptr, ptr %2, align 8, !tbaa !24
  %22 = call i64 @gtk_widget_get_type() #12
  %23 = call ptr @g_type_check_instance_cast(ptr noundef %21, i64 noundef %22)
  store ptr %23, ptr %5, align 8, !tbaa !54
  %24 = load ptr, ptr %5, align 8, !tbaa !54
  %25 = load ptr, ptr getelementptr inbounds nuw (%struct.darktable_t, ptr @darktable, i32 0, i32 14), align 8, !tbaa !61
  %26 = getelementptr inbounds nuw %struct.dt_gui_gtk_t, ptr %25, i32 0, i32 24
  %27 = load i32, ptr %26, align 8, !tbaa !102
  %28 = or i32 16134, %27
  call void @gtk_widget_add_events(ptr noundef %24, i32 noundef %28)
  %29 = load ptr, ptr %5, align 8, !tbaa !54
  call void @gtk_widget_set_has_window(ptr noundef %29, i32 noundef 1)
  %30 = load ptr, ptr %5, align 8, !tbaa !54
  call void @gtk_widget_set_can_focus(ptr noundef %30, i32 noundef 1)
  call void @llvm.lifetime.end.p0(i64 8, ptr %5) #11
  br label %31

31:                                               ; preds = %20, %18
  ret void
}