; Function Attrs: nounwind uwtable
define internal void @_gradient_slider_init(ptr noundef %0) #0 {
  %.not = icmp eq ptr %0, null
  br i1 %.not, label %2, label %3, !prof !45

2:                                                ; preds = %1
  tail call void @g_return_if_fail_warning(ptr noundef null, ptr noundef nonnull @__func__._gradient_slider_init, ptr noundef nonnull @.str.1) #14
  br label %10

3:                                                ; preds = %1
  %4 = tail call i64 @gtk_widget_get_type() #15
  %5 = tail call ptr @g_type_check_instance_cast(ptr noundef nonnull %0, i64 noundef %4) #14
  %6 = load ptr, ptr getelementptr inbounds nuw (i8, ptr @darktable, i64 104), align 8, !tbaa !48
  %7 = getelementptr inbounds nuw i8, ptr %6, i64 5552
  %8 = load i32, ptr %7, align 8, !tbaa !108
  %9 = or i32 %8, 16134
  tail call void @gtk_widget_add_events(ptr noundef %5, i32 noundef %9) #14
  tail call void @gtk_widget_set_has_window(ptr noundef %5, i32 noundef 1) #14
  tail call void @gtk_widget_set_can_focus(ptr noundef %5, i32 noundef 1) #14
  br label %10

10:                                               ; preds = %3, %2
  ret void
}